; Function Attrs: nounwind uwtable
define void @lv_buttonmatrix_clear_button_ctrl_all(ptr noundef %0, i32 noundef %1) local_unnamed_addr #0 {
  %3 = getelementptr inbounds nuw i8, ptr %0, i64 88
  %4 = load i32, ptr %3, align 8, !tbaa !3
  %.not = icmp eq i32 %4, 0
  br i1 %.not, label %._crit_edge, label %.lr.ph

.lr.ph:                                           ; preds = %2
  %5 = xor i32 %1, -1
  %6 = getelementptr inbounds nuw i8, ptr %0, i64 80
  %7 = and i32 %1, 1024
  %.not9.i = icmp eq i32 %7, 0
  br i1 %.not9.i, label %lv_buttonmatrix_clear_button_ctrl.exit.us, label %lv_buttonmatrix_clear_button_ctrl.exit

lv_buttonmatrix_clear_button_ctrl.exit.us:        ; preds = %.lr.ph, %lv_buttonmatrix_clear_button_ctrl.exit.us
  %indvars.iv9 = phi i64 [ %indvars.iv.next10, %lv_buttonmatrix_clear_button_ctrl.exit.us ], [ 0, %.lr.ph ]
  %8 = load ptr, ptr %6, align 8, !tbaa !15
  %9 = getelementptr inbounds nuw i32, ptr %8, i64 %indvars.iv9
  %10 = load i32, ptr %9, align 4, !tbaa !21
  %11 = and i32 %10, %5
  store i32 %11, ptr %9, align 4, !tbaa !21
  %12 = trunc nuw i64 %indvars.iv9 to i32
  tail call fastcc void @invalidate_button_area(ptr noundef nonnull %0, i32 noundef %12)
  %indvars.iv.next10 = add nuw nsw i64 %indvars.iv9, 1
  %13 = load i32, ptr %3, align 8, !tbaa !3
  %14 = zext i32 %13 to i64
  %15 = icmp samesign ult i64 %indvars.iv.next10, %14
  br i1 %15, label %lv_buttonmatrix_clear_button_ctrl.exit.us, label %._crit_edge, !llvm.loop !38

lv_buttonmatrix_clear_button_ctrl.exit:           ; preds = %.lr.ph, %lv_buttonmatrix_clear_button_ctrl.exit
  %indvars.iv = phi i64 [ %indvars.iv.next, %lv_buttonmatrix_clear_button_ctrl.exit ], [ 0, %.lr.ph ]
  %16 = load ptr, ptr %6, align 8, !tbaa !15
  %17 = getelementptr inbounds nuw i32, ptr %16, i64 %indvars.iv
  %18 = load i32, ptr %17, align 4, !tbaa !21
  %19 = and i32 %18, %5
  store i32 %19, ptr %17, align 4, !tbaa !21
  %20 = trunc nuw i64 %indvars.iv to i32
  tail call fastcc void @invalidate_button_area(ptr noundef nonnull %0, i32 noundef %20)
  tail call void @lv_obj_refresh_ext_draw_size(ptr noundef nonnull %0) #7
  %indvars.iv.next = add nuw nsw i64 %indvars.iv, 1
  %21 = load i32, ptr %3, align 8, !tbaa !3
  %22 = zext i32 %21 to i64
  %23 = icmp samesign ult i64 %indvars.iv.next, %22
  br i1 %23, label %lv_buttonmatrix_clear_button_ctrl.exit, label %._crit_edge, !llvm.loop !38

._crit_edge:                                      ; preds = %lv_buttonmatrix_clear_button_ctrl.exit, %lv_buttonmatrix_clear_button_ctrl.exit.us, %2
  ret void
}